; Function Attrs: nounwind uwtable
define dso_local void @string_list_remove(ptr noundef captures(none) %0, ptr noundef %1, i32 noundef %2) local_unnamed_addr #4 {
  %4 = getelementptr inbounds nuw i8, ptr %0, i64 8
  %5 = load i64, ptr %4, align 8, !tbaa !4
  %6 = trunc i64 %5 to i32
  %7 = getelementptr inbounds nuw i8, ptr %0, i64 32
  %8 = load ptr, ptr %7, align 8, !tbaa !12
  %.not.i = icmp eq ptr %8, null
  %spec.select.i = select i1 %.not.i, ptr @strcmp, ptr %8
  %9 = icmp sgt i32 %6, 0
  br i1 %9, label %.lr.ph.i, label %move_array.exit

.lr.ph.i:                                         ; preds = %3, %20
  %.02236.i = phi i32 [ %.224.i, %20 ], [ -1, %3 ]
  %.02535.i = phi i32 [ %.227.i, %20 ], [ %6, %3 ]
  %10 = sub nsw i32 %.02535.i, %.02236.i
  %11 = sdiv i32 %10, 2
  %12 = add nsw i32 %11, %.02236.i
  %13 = load ptr, ptr %0, align 8, !tbaa !13
  %14 = sext i32 %12 to i64
  %15 = getelementptr inbounds %struct.string_list_item, ptr %13, i64 %14
  %16 = load ptr, ptr %15, align 8, !tbaa !14
  %17 = tail call i32 %spec.select.i(ptr noundef %1, ptr noundef %16) #11
  %18 = icmp slt i32 %17, 0
  br i1 %18, label %20, label %19

19:                                               ; preds = %.lr.ph.i
  %.not30.i = icmp eq i32 %17, 0
  br i1 %.not30.i, label %get_entry_index.exit, label %20

20:                                               ; preds = %19, %.lr.ph.i
  %.227.i = phi i32 [ %12, %.lr.ph.i ], [ %.02535.i, %19 ]
  %.224.i = phi i32 [ %.02236.i, %.lr.ph.i ], [ %12, %19 ]
  %21 = add nsw i32 %.224.i, 1
  %22 = icmp slt i32 %21, %.227.i
  br i1 %22, label %.lr.ph.i, label %move_array.exit, !llvm.loop !17

get_entry_index.exit:                             ; preds = %19
  %23 = getelementptr inbounds nuw i8, ptr %0, i64 24
  %24 = load i8, ptr %23, align 8
  %25 = and i8 %24, 1
  %.not14 = icmp eq i8 %25, 0
  br i1 %.not14, label %30, label %26

26:                                               ; preds = %get_entry_index.exit
  %27 = load ptr, ptr %0, align 8, !tbaa !13
  %28 = getelementptr inbounds %struct.string_list_item, ptr %27, i64 %14
  %29 = load ptr, ptr %28, align 8, !tbaa !14
  tail call void @free(ptr noundef %29) #11
  br label %30

30:                                               ; preds = %26, %get_entry_index.exit
  %.not15 = icmp eq i32 %2, 0
  br i1 %.not15, label %35, label %31

31:                                               ; preds = %30
  %32 = load ptr, ptr %0, align 8, !tbaa !13
  %33 = getelementptr inbounds %struct.string_list_item, ptr %32, i64 %14, i32 1
  %34 = load ptr, ptr %33, align 8, !tbaa !20
  tail call void @free(ptr noundef %34) #11
  br label %35

35:                                               ; preds = %31, %30
  %36 = load i64, ptr %4, align 8, !tbaa !4
  %37 = add i64 %36, -1
  store i64 %37, ptr %4, align 8, !tbaa !4
  %38 = load ptr, ptr %0, align 8, !tbaa !13
  %39 = getelementptr inbounds %struct.string_list_item, ptr %38, i64 %14
  %40 = getelementptr inbounds nuw i8, ptr %39, i64 16
  %41 = sub i64 %37, %14
  %.not.i16 = icmp eq i64 %37, %14
  br i1 %.not.i16, label %move_array.exit, label %42

42:                                               ; preds = %35
  %43 = icmp ugt i64 %41, 1152921504606846975
  br i1 %43, label %44, label %st_mult.exit.i

44:                                               ; preds = %42
  tail call void (ptr, ...) @die(ptr noundef nonnull @.str.6, i64 noundef 16, i64 noundef %41) #12
  unreachable

st_mult.exit.i:                                   ; preds = %42
  %45 = shl nuw i64 %41, 4
  tail call void @llvm.memmove.p0.p0.i64(ptr align 1 %39, ptr nonnull readonly align 1 %40, i64 %45, i1 false)
  br label %move_array.exit

move_array.exit:                                  ; preds = %20, %3, %st_mult.exit.i, %35
  ret void
}